; Function Attrs: nounwind uwtable
define zeroext range(i8 0, 2) i8 @l_Lean_Elab_Structural_beqIndGroupInfo____x40_Lean_Elab_PreDefinition_Structural_IndGroupInfo___hyg_26_(ptr noundef readonly captures(none) %0, ptr noundef readonly captures(none) %1) local_unnamed_addr #0 {
lean_dec.exit22:
  %2 = getelementptr inbounds nuw i8, ptr %0, i64 8
  %3 = load ptr, ptr %2, align 8, !tbaa !11
  %4 = getelementptr inbounds nuw i8, ptr %0, i64 16
  %5 = load ptr, ptr %4, align 8, !tbaa !11
  %6 = getelementptr inbounds nuw i8, ptr %1, i64 8
  %7 = load ptr, ptr %6, align 8, !tbaa !11
  %8 = getelementptr inbounds nuw i8, ptr %1, i64 16
  %9 = load ptr, ptr %8, align 8, !tbaa !11
  %10 = getelementptr i8, ptr %3, i64 8
  %.val28 = load i64, ptr %10, align 8, !tbaa !13
  %11 = shl i64 %.val28, 1
  %12 = getelementptr i8, ptr %7, i64 8
  %.val = load i64, ptr %12, align 8, !tbaa !13
  %13 = shl i64 %.val, 1
  %.not = icmp eq i64 %11, %13
  br i1 %.not, label %14, label %lean_dec.exit

14:                                               ; preds = %lean_dec.exit22
  %15 = or disjoint i64 %11, 1
  %16 = inttoptr i64 %15 to ptr
  %17 = tail call zeroext i8 @l_Array_isEqvAux___at_Lean_Elab_Structural_beqIndGroupInfo____x40_Lean_Elab_PreDefinition_Structural_IndGroupInfo___hyg_26____spec__1(ptr nonnull poison, ptr nonnull poison, ptr nonnull poison, ptr noundef nonnull %3, ptr noundef nonnull %7, ptr noundef nonnull %16, ptr nonnull poison)
  %18 = icmp eq i8 %17, 0
  br i1 %18, label %lean_dec.exit, label %19

19:                                               ; preds = %14
  %20 = ptrtoint ptr %5 to i64
  %21 = and i64 %20, 1
  %22 = icmp ne i64 %21, 0
  %23 = ptrtoint ptr %9 to i64
  %24 = and i64 %23, 1
  %25 = icmp ne i64 %24, 0
  %or.cond = select i1 %22, i1 %25, i1 false
  br i1 %or.cond, label %26, label %.critedge.i25, !prof !15

26:                                               ; preds = %19
  %27 = icmp eq ptr %5, %9
  br label %lean_nat_eq.exit27

.critedge.i25:                                    ; preds = %19
  %28 = tail call zeroext i1 @lean_nat_big_eq(ptr noundef %5, ptr noundef %9) #4
  br label %lean_nat_eq.exit27

lean_nat_eq.exit27:                               ; preds = %26, %.critedge.i25
  %.0.i26 = phi i1 [ %27, %26 ], [ %28, %.critedge.i25 ]
  %29 = zext i1 %.0.i26 to i8
  br label %lean_dec.exit

lean_dec.exit:                                    ; preds = %lean_dec.exit22, %lean_nat_eq.exit27, %14
  %.0 = phi i8 [ %29, %lean_nat_eq.exit27 ], [ 0, %14 ], [ 0, %lean_dec.exit22 ]
  ret i8 %.0
}